Certificate:
    Data:
        Version: 3 (0x2)
        Serial Number:
            bf:90:73:0b:f2:4d:c0:9b
    Signature Algorithm: sha256WithRSAEncryption
        Issuer: C=US, ST=MA, O=UMMS, OU=DST, CN=localhost
        Validity
            Not Before: Dec 27 17:44:03 2017 GMT
            Not After : Dec 27 17:44:03 2018 GMT
        Subject: C=US, ST=MA, L=Worcester, O=SHRINE, OU=localhost, CN=localhost
        Subject Public Key Info:
            Public Key Algorithm: rsaEncryption
                Public-Key: (2048 bit)
                Modulus:
                    00:91:b4:59:47:a3:30:5f:2b:f7:7a:cc:7d:18:b3:
                    3e:c1:10:56:11:ad:99:c1:cf:fa:ad:ab:13:bf:89:
                    15:4b:d8:c9:b9:fe:71:e9:7f:44:6e:5b:0d:56:eb:
                    d6:89:b4:b0:26:a2:77:6f:62:51:88:be:7b:c5:ab:
                    48:44:d1:3f:cc:10:f0:2f:b2:b8:f4:27:98:b5:b8:
                    75:88:65:10:2a:30:9a:55:58:fb:66:0d:76:32:64:
                    d2:13:0b:74:13:2f:af:98:29:45:ab:15:3d:c3:5e:
                    10:80:97:b9:8c:b6:42:fb:d5:8e:84:f3:5f:c3:36:
                    0e:34:20:b1:db:f6:1c:4d:87:a8:a2:7c:40:09:91:
                    60:a2:03:9e:58:c4:00:3a:c4:e1:f4:a9:14:70:a6:
                    42:2a:82:b9:85:11:12:de:a7:1e:64:03:ab:39:14:
                    80:e6:fc:59:cc:70:2f:a6:c2:69:b5:6b:cb:30:60:
                    bb:87:b3:b2:42:37:95:af:93:4d:a0:33:21:0c:bc:
                    1a:cb:83:d0:d6:01:70:4b:5a:cd:14:91:e4:3a:35:
                    da:89:1a:e8:dd:5d:2f:b3:50:1f:20:56:e2:16:74:
                    48:a3:6c:7f:62:84:4f:6c:77:0c:8f:ad:a8:cb:9a:
                    d5:cb:07:83:10:35:38:03:95:c0:7b:cd:e9:8b:c6:
                    3f:11
                Exponent: 65537 (0x10001)
        X509v3 extensions:
            X509v3 Basic Constraints: 
                CA:FALSE
            X509v3 Key Usage: 
                Digital Signature, Non Repudiation, Key Encipherment
            X509v3 Subject Alternative Name: 
                IP Address:127.0.0.1
    Signature Algorithm: sha256WithRSAEncryption
         69:68:9d:33:2f:63:00:1a:46:5b:ad:00:a4:5a:43:7e:bb:a0:
         48:5f:19:47:4e:c6:00:9d:4f:2f:14:8d:ea:1a:04:94:5d:6f:
         34:73:ae:d3:62:00:5c:57:b0:c2:b5:16:7f:b5:9f:20:51:9c:
         1a:5d:dd:70:d9:88:46:80:e7:13:5d:99:80:e5:aa:2a:b3:f1:
         b6:1d:bb:bd:fe:78:f6:6b:7c:f4:cb:ec:9a:e3:95:65:9c:a5:
         ef:58:15:8a:a1:05:e4:e7:6c:b7:41:1a:cf:b8:2c:dc:a6:f3:
         d5:7e:f4:bc:82:65:60:7e:ec:26:0b:67:eb:15:2e:d8:7b:25:
         33:2d:d9:2e:fc:c4:c1:e5:8e:5d:bb:41:80:ae:bd:52:22:d0:
         ca:5d:82:cc:65:dc:8c:55:d1:2a:4d:26:f2:27:f4:81:8a:50:
         fd:bb:96:1b:04:5c:11:93:c2:f0:ed:93:0a:41:fb:35:d3:07:
         47:3a:15:b6:1a:a8:b2:95:83:d6:18:92:bb:2a:a2:fa:9c:a5:
         06:3e:65:92:9f:80:42:b2:d8:53:31:55:0c:ae:ba:95:f1:35:
         10:7e:b8:77:a1:ce:29:61:02:81:3b:9e:27:f9:cf:b8:71:fe:
         e7:6c:6e:57:3a:c2:73:fc:de:95:28:8e:65:db:23:f8:3f:cb:
         64:ff:2c:93
-----BEGIN CERTIFICATE-----
MIIDYDCCAkigAwIBAgIJAL+QcwvyTcCbMA0GCSqGSIb3DQEBCwUAMEsxCzAJBgNV
BAYTAlVTMQswCQYDVQQIDAJNQTENMAsGA1UECgwEVU1NUzEMMAoGA1UECwwDRFNU
MRIwEAYDVQQDDAlsb2NhbGhvc3QwHhcNMTcxMjI3MTc0NDAzWhcNMTgxMjI3MTc0
NDAzWjBnMQswCQYDVQQGEwJVUzELMAkGA1UECBMCTUExEjAQBgNVBAcTCVdvcmNl
c3RlcjEPMA0GA1UEChMGU0hSSU5FMRIwEAYDVQQLEwlsb2NhbGhvc3QxEjAQBgNV
BAMTCWxvY2FsaG9zdDCCASIwDQYJKoZIhvcNAQEBBQADggEPADCCAQoCggEBAJG0
WUejMF8r93rMfRizPsEQVhGtmcHP+q2rE7+JFUvYybn+cel/RG5bDVbr1om0sCai
d29iUYi+e8WrSETRP8wQ8C+yuPQnmLW4dYhlECowmlVY+2YNdjJk0hMLdBMvr5gp
RasVPcNeEICXuYy2QvvVjoTzX8M2DjQgsdv2HE2HqKJ8QAmRYKIDnljEADrE4fSp
FHCmQiqCuYUREt6nHmQDqzkUgOb8WcxwL6bCabVryzBgu4ezskI3la+TTaAzIQy8
GsuD0NYBcEtazRSR5Do12oka6N1dL7NQHyBW4hZ0SKNsf2KET2x3DI+tqMua1csH
gxA1OAOVwHvN6YvGPxECAwEAAaMrMCkwCQYDVR0TBAIwADALBgNVHQ8EBAMCBeAw
DwYDVR0RBAgwBocEfwAAATANBgkqhkiG9w0BAQsFAAOCAQEAaWidMy9jABpGW60A
pFpDfrugSF8ZR07GAJ1PLxSN6hoElF1vNHOu02IAXFewwrUWf7WfIFGcGl3dcNmI
RoDnE12ZgOWqKrPxth27vf549mt89MvsmuOVZZyl71gViqEF5Odst0Eaz7gs3Kbz
1X70vIJlYH7sJgtn6xUu2HslMy3ZLvzEweWOXbtBgK69UiLQyl2CzGXcjFXRKk0m
8if0gYpQ/buWGwRcEZPC8O2TCkH7NdMHRzoVthqospWD1hiSuyqi+pylBj5lkp+A
QrLYUzFVDK66lfE1EH64d6HOKWECgTueJ/nPuHH+52xuVzrCc/zelSiOZdsj+D/L
ZP8skw==
-----END CERTIFICATE-----
