Certificate:
    Data:
        Version: 3 (0x2)
        Serial Number:
            bf:90:73:0b:f2:4d:c0:9a
    Signature Algorithm: sha256WithRSAEncryption
        Issuer: C=US, ST=MA, O=UMMS, OU=DST, CN=localhost
        Validity
            Not Before: Dec 27 17:27:07 2017 GMT
            Not After : Dec 26 17:27:07 2020 GMT
        Subject: C=US, ST=MA, O=UMMS, OU=DST, CN=localhost
        Subject Public Key Info:
            Public Key Algorithm: rsaEncryption
                Public-Key: (2048 bit)
                Modulus:
                    00:b3:8d:e1:f4:8c:bc:60:03:1c:bf:b4:43:98:b4:
                    df:1a:a6:1d:57:a2:ad:7b:50:5d:fc:af:3d:b5:af:
                    6f:bf:fb:32:c7:ca:38:ee:87:a7:ba:91:37:30:5d:
                    c9:43:a7:29:c8:4e:39:2f:41:dd:8a:e5:2d:24:20:
                    3d:ad:dc:6c:f5:ea:04:88:9d:bb:ce:5f:6b:63:d0:
                    65:fa:fe:37:f4:1d:32:01:11:c4:3a:e8:7d:cf:90:
                    f5:5c:2f:4b:39:39:4b:a6:f5:6c:9f:ca:b8:4a:2a:
                    f6:70:b0:bf:71:03:3a:16:11:c8:6f:d5:8e:60:e5:
                    a7:54:fc:8b:ae:e8:b8:d7:b5:4e:11:bd:e5:d9:50:
                    0c:cc:44:2e:56:f4:c1:83:e2:21:4b:0a:b6:d9:f3:
                    46:b6:cb:af:c3:f3:ab:d1:70:9c:77:ca:1d:06:73:
                    05:25:6c:7d:3c:32:fc:28:d2:6a:65:95:c5:a9:b0:
                    bf:39:d4:72:7d:ab:28:2e:87:04:cd:43:12:af:3b:
                    82:51:29:5d:8c:26:6b:30:29:61:db:e9:a9:bf:67:
                    75:74:19:27:1e:fd:04:6e:06:3f:4c:8c:e7:2c:47:
                    b9:48:f2:da:f9:98:dc:05:cc:92:d0:43:ea:ef:dc:
                    91:a5:00:f6:ed:95:34:15:ed:b1:42:68:7d:09:15:
                    7b:55
                Exponent: 65537 (0x10001)
        X509v3 extensions:
            X509v3 Subject Key Identifier: 
                D5:EB:BB:5D:81:22:78:9A:17:13:3F:91:C9:CF:E2:B5:41:80:D0:A2
            X509v3 Authority Key Identifier: 
                keyid:D5:EB:BB:5D:81:22:78:9A:17:13:3F:91:C9:CF:E2:B5:41:80:D0:A2

            X509v3 Basic Constraints: 
                CA:TRUE
    Signature Algorithm: sha256WithRSAEncryption
         1c:b4:b1:54:73:3e:a9:ef:4a:f5:72:82:8b:a3:7b:6d:9c:1f:
         b6:d2:71:15:64:3c:65:7c:86:23:f5:97:73:d0:55:41:04:28:
         3e:57:5c:80:2e:ad:26:d5:40:de:97:98:e7:b3:27:6b:3c:41:
         69:6b:6f:78:3f:9a:cc:53:2c:34:24:fa:f5:9a:11:ed:8b:25:
         63:1d:b2:c1:01:c0:a5:f0:26:2a:52:cb:2b:cd:c8:a1:61:16:
         b5:75:4b:ef:30:33:b5:ae:87:af:ca:aa:95:3d:0a:c5:96:fc:
         bb:a9:41:2a:0d:65:2a:d3:9b:6d:a9:1a:59:9f:61:3a:b3:1a:
         64:28:53:17:68:31:eb:4d:4b:5b:6b:72:63:29:6d:3e:5c:2e:
         45:8d:eb:88:96:10:db:35:76:26:86:39:ef:f2:da:41:1a:3b:
         8c:dc:7c:93:fc:9f:f3:7f:d9:bb:f6:59:9b:ff:17:9c:4a:64:
         d9:18:28:b9:00:ba:bf:ce:51:bf:10:50:98:b9:ff:b7:05:1a:
         0f:a9:7c:27:76:cc:cc:0b:0f:21:31:cc:fe:db:c8:d9:5a:e3:
         ca:63:ee:4b:62:18:b9:d6:1e:97:84:ff:7a:98:79:19:16:2b:
         b7:c3:92:bc:74:c4:9e:4f:c5:55:05:1d:a4:bf:e4:09:3a:f3:
         f1:35:27:a1
-----BEGIN CERTIFICATE-----
MIIDaTCCAlGgAwIBAgIJAL+QcwvyTcCaMA0GCSqGSIb3DQEBCwUAMEsxCzAJBgNV
BAYTAlVTMQswCQYDVQQIDAJNQTENMAsGA1UECgwEVU1NUzEMMAoGA1UECwwDRFNU
MRIwEAYDVQQDDAlsb2NhbGhvc3QwHhcNMTcxMjI3MTcyNzA3WhcNMjAxMjI2MTcy
NzA3WjBLMQswCQYDVQQGEwJVUzELMAkGA1UECAwCTUExDTALBgNVBAoMBFVNTVMx
DDAKBgNVBAsMA0RTVDESMBAGA1UEAwwJbG9jYWxob3N0MIIBIjANBgkqhkiG9w0B
AQEFAAOCAQ8AMIIBCgKCAQEAs43h9Iy8YAMcv7RDmLTfGqYdV6Kte1Bd/K89ta9v
v/syx8o47oenupE3MF3JQ6cpyE45L0HdiuUtJCA9rdxs9eoEiJ27zl9rY9Bl+v43
9B0yARHEOuh9z5D1XC9LOTlLpvVsn8q4Sir2cLC/cQM6FhHIb9WOYOWnVPyLrui4
17VOEb3l2VAMzEQuVvTBg+IhSwq22fNGtsuvw/Or0XCcd8odBnMFJWx9PDL8KNJq
ZZXFqbC/OdRyfasoLocEzUMSrzuCUSldjCZrMClh2+mpv2d1dBknHv0EbgY/TIzn
LEe5SPLa+ZjcBcyS0EPq79yRpQD27ZU0Fe2xQmh9CRV7VQIDAQABo1AwTjAdBgNV
HQ4EFgQU1eu7XYEieJoXEz+Ryc/itUGA0KIwHwYDVR0jBBgwFoAU1eu7XYEieJoX
Ez+Ryc/itUGA0KIwDAYDVR0TBAUwAwEB/zANBgkqhkiG9w0BAQsFAAOCAQEAHLSx
VHM+qe9K9XKCi6N7bZwfttJxFWQ8ZXyGI/WXc9BVQQQoPldcgC6tJtVA3peY57Mn
azxBaWtveD+azFMsNCT69ZoR7YslYx2ywQHApfAmKlLLK83IoWEWtXVL7zAzta6H
r8qqlT0KxZb8u6lBKg1lKtObbakaWZ9hOrMaZChTF2gx601LW2tyYyltPlwuRY3r
iJYQ2zV2JoY57/LaQRo7jNx8k/yf83/Zu/ZZm/8XnEpk2RgouQC6v85RvxBQmLn/
twUaD6l8J3bMzAsPITHM/tvI2VrjymPuS2IYudYel4T/eph5GRYrt8OSvHTEnk/F
VQUdpL/kCTrz8TUnoQ==
-----END CERTIFICATE-----
